target datalayout = "e-m:e-p270:32:32-p271:32:32-p272:64:64-i64:64-i128:128-f80:128-n8:16:32:64-S128"
target triple = "x86_64-pc-linux-gnu"

; Function Attrs: nounwind uwtable
define internal ptr @pwdfMatchesString(ptr noundef %0, ptr noundef %1) #0 {
  %3 = alloca ptr, align 8
  %4 = alloca ptr, align 8
  %5 = alloca ptr, align 8
  %6 = alloca ptr, align 8
  %7 = alloca ptr, align 8
  %8 = alloca i8, align 1
  %9 = alloca i32, align 4
  store ptr %0, ptr %4, align 8
  store ptr %1, ptr %5, align 8
  call void @llvm.lifetime.start.p0(i64 8, ptr %6) #12
  call void @llvm.lifetime.start.p0(i64 8, ptr %7) #12
  call void @llvm.lifetime.start.p0(i64 1, ptr %8) #12
  store i8 0, ptr %8, align 1
  %10 = load ptr, ptr %4, align 8
  %11 = icmp eq ptr %10, null
  br i1 %11, label %15, label %12

12:                                               ; preds = %2
  %13 = load ptr, ptr %5, align 8
  %14 = icmp eq ptr %13, null
  br i1 %14, label %15, label %16

15:                                               ; preds = %12, %2
  store ptr null, ptr %3, align 8
  store i32 1, ptr %9, align 4
  br label %88

16:                                               ; preds = %12
  %17 = load ptr, ptr %4, align 8
  store ptr %17, ptr %6, align 8
  %18 = load ptr, ptr %5, align 8
  store ptr %18, ptr %7, align 8
  %19 = load ptr, ptr %6, align 8
  %20 = getelementptr inbounds i8, ptr %19, i64 0
  %21 = load i8, ptr %20, align 1
  %22 = sext i8 %21 to i32
  %23 = icmp eq i32 %22, 42
  br i1 %23, label %24, label %33

24:                                               ; preds = %16
  %25 = load ptr, ptr %6, align 8
  %26 = getelementptr inbounds i8, ptr %25, i64 1
  %27 = load i8, ptr %26, align 1
  %28 = sext i8 %27 to i32
  %29 = icmp eq i32 %28, 58
  br i1 %29, label %30, label %33

30:                                               ; preds = %24
  %31 = load ptr, ptr %6, align 8
  %32 = getelementptr inbounds i8, ptr %31, i64 2
  store ptr %32, ptr %3, align 8
  store i32 1, ptr %9, align 4
  br label %88

33:                                               ; preds = %24, %16
  br label %34

34:                                               ; preds = %86, %33
  %35 = load ptr, ptr %6, align 8
  %36 = load i8, ptr %35, align 1
  %37 = sext i8 %36 to i32
  %38 = icmp ne i32 %37, 0
  br i1 %38, label %39, label %87

39:                                               ; preds = %34
  %40 = load ptr, ptr %6, align 8
  %41 = load i8, ptr %40, align 1
  %42 = sext i8 %41 to i32
  %43 = icmp eq i32 %42, 92
  br i1 %43, label %44, label %50

44:                                               ; preds = %39
  %45 = load i8, ptr %8, align 1, !range !3, !noundef !4
  %46 = trunc i8 %45 to i1
  br i1 %46, label %50, label %47

47:                                               ; preds = %44
  %48 = load ptr, ptr %6, align 8
  %49 = getelementptr inbounds nuw i8, ptr %48, i32 1
  store ptr %49, ptr %6, align 8
  store i8 1, ptr %8, align 1
  br label %50

50:                                               ; preds = %47, %44, %39
  %51 = load ptr, ptr %6, align 8
  %52 = load i8, ptr %51, align 1
  %53 = sext i8 %52 to i32
  %54 = icmp eq i32 %53, 58
  br i1 %54, label %55, label %66

55:                                               ; preds = %50
  %56 = load ptr, ptr %7, align 8
  %57 = load i8, ptr %56, align 1
  %58 = sext i8 %57 to i32
  %59 = icmp eq i32 %58, 0
  br i1 %59, label %60, label %66

60:                                               ; preds = %55
  %61 = load i8, ptr %8, align 1, !range !3, !noundef !4
  %62 = trunc i8 %61 to i1
  br i1 %62, label %66, label %63

63:                                               ; preds = %60
  %64 = load ptr, ptr %6, align 8
  %65 = getelementptr inbounds i8, ptr %64, i64 1
  store ptr %65, ptr %3, align 8
  store i32 1, ptr %9, align 4
  br label %88

66:                                               ; preds = %60, %55, %50
  store i8 0, ptr %8, align 1
  %67 = load ptr, ptr %7, align 8
  %68 = load i8, ptr %67, align 1
  %69 = sext i8 %68 to i32
  %70 = icmp eq i32 %69, 0
  br i1 %70, label %71, label %72

71:                                               ; preds = %66
  store ptr null, ptr %3, align 8
  store i32 1, ptr %9, align 4
  br label %88

72:                                               ; preds = %66
  %73 = load ptr, ptr %6, align 8
  %74 = load i8, ptr %73, align 1
  %75 = sext i8 %74 to i32
  %76 = load ptr, ptr %7, align 8
  %77 = load i8, ptr %76, align 1
  %78 = sext i8 %77 to i32
  %79 = icmp eq i32 %75, %78
  br i1 %79, label %80, label %85

80:                                               ; preds = %72
  %81 = load ptr, ptr %6, align 8
  %82 = getelementptr inbounds nuw i8, ptr %81, i32 1
  store ptr %82, ptr %6, align 8
  %83 = load ptr, ptr %7, align 8
  %84 = getelementptr inbounds nuw i8, ptr %83, i32 1
  store ptr %84, ptr %7, align 8
  br label %86

85:                                               ; preds = %72
  store ptr null, ptr %3, align 8
  store i32 1, ptr %9, align 4
  br label %88

86:                                               ; preds = %80
  br label %34, !llvm.loop !68

87:                                               ; preds = %34
  store ptr null, ptr %3, align 8
  store i32 1, ptr %9, align 4
  br label %88

88:                                               ; preds = %87, %85, %71, %63, %30, %15
  call void @llvm.lifetime.end.p0(i64 1, ptr %8) #12
  call void @llvm.lifetime.end.p0(i64 8, ptr %7) #12
  call void @llvm.lifetime.end.p0(i64 8, ptr %6) #12
  %89 = load ptr, ptr %3, align 8
  ret ptr %89
}