; Function Attrs: nofree norecurse nosync nounwind memory(argmem: read) uwtable
define internal fastcc ptr @pwdfMatchesString(ptr noundef readonly captures(address_is_null, ret: address, provenance) %0, ptr noundef readonly captures(address_is_null) %1) unnamed_addr #24 {
  %3 = icmp eq ptr %0, null
  %4 = icmp eq ptr %1, null
  %or.cond = or i1 %3, %4
  br i1 %or.cond, label %.loopexit, label %5

5:                                                ; preds = %2
  %6 = load i8, ptr %0, align 1
  switch i8 %6, label %.lr.ph.preheader [
    i8 42, label %7
    i8 0, label %.loopexit
  ]

7:                                                ; preds = %5
  %8 = getelementptr inbounds nuw i8, ptr %0, i64 1
  %9 = load i8, ptr %8, align 1
  %10 = icmp eq i8 %9, 58
  br i1 %10, label %11, label %.lr.ph.preheader

.lr.ph.preheader:                                 ; preds = %5, %7
  br label %.lr.ph

11:                                               ; preds = %7
  %12 = getelementptr inbounds nuw i8, ptr %0, i64 2
  br label %.loopexit

.lr.ph:                                           ; preds = %.lr.ph.preheader, %23
  %13 = phi i8 [ %26, %23 ], [ %6, %.lr.ph.preheader ]
  %.02132 = phi ptr [ %25, %23 ], [ %1, %.lr.ph.preheader ]
  %.02231 = phi ptr [ %24, %23 ], [ %0, %.lr.ph.preheader ]
  %14 = icmp eq i8 %13, 92
  %.123.idx = zext i1 %14 to i64
  %.123 = getelementptr inbounds nuw i8, ptr %.02231, i64 %.123.idx
  %15 = load i8, ptr %.123, align 1
  %16 = icmp ne i8 %15, 58
  %17 = load i8, ptr %.02132, align 1
  %18 = icmp ne i8 %17, 0
  %brmerge = or i1 %14, %18
  %or.cond37 = select i1 %16, i1 true, i1 %brmerge
  br i1 %or.cond37, label %thread-pre-split, label %19

19:                                               ; preds = %.lr.ph
  %20 = getelementptr inbounds nuw i8, ptr %.123, i64 1
  br label %.loopexit

thread-pre-split:                                 ; preds = %.lr.ph
  %21 = icmp ne i8 %17, 0
  %22 = icmp eq i8 %15, %17
  %or.cond29 = and i1 %21, %22
  br i1 %or.cond29, label %23, label %.loopexit

23:                                               ; preds = %thread-pre-split
  %24 = getelementptr inbounds nuw i8, ptr %.123, i64 1
  %25 = getelementptr inbounds nuw i8, ptr %.02132, i64 1
  %26 = load i8, ptr %24, align 1
  %.not = icmp eq i8 %26, 0
  br i1 %.not, label %.loopexit, label %.lr.ph, !llvm.loop !59

.loopexit:                                        ; preds = %thread-pre-split, %23, %5, %2, %19, %11
  %.024 = phi ptr [ %12, %11 ], [ %20, %19 ], [ null, %2 ], [ null, %5 ], [ null, %23 ], [ null, %thread-pre-split ]
  ret ptr %.024
}